target datalayout = "e-m:e-p270:32:32-p271:32:32-p272:64:64-i64:64-i128:128-f80:128-n8:16:32:64-S128"
target triple = "x86_64-pc-linux-gnu"

%struct.luaL_Strbuf = type { ptr, ptr, ptr, ptr, [512 x i8] }

; Function Attrs: inlinehint mustprogress nounwind willreturn memory(read) uwtable
define available_externally i32 @tolower(i32 noundef %0) #8 {
  %2 = alloca i32, align 4
  store i32 %0, ptr %2, align 4, !tbaa !24
  %3 = load i32, ptr %2, align 4, !tbaa !24
  %4 = icmp sge i32 %3, -128
  br i1 %4, label %5, label %15

5:                                                ; preds = %1
  %6 = load i32, ptr %2, align 4, !tbaa !24
  %7 = icmp slt i32 %6, 256
  br i1 %7, label %8, label %15

8:                                                ; preds = %5
  %9 = call ptr @__ctype_tolower_loc() #16
  %10 = load ptr, ptr %9, align 8, !tbaa !100
  %11 = load i32, ptr %2, align 4, !tbaa !24
  %12 = sext i32 %11 to i64
  %13 = getelementptr inbounds i32, ptr %10, i64 %12
  %14 = load i32, ptr %13, align 4, !tbaa !24
  br label %17

15:                                               ; preds = %5, %1
  %16 = load i32, ptr %2, align 4, !tbaa !24
  br label %17

17:                                               ; preds = %15, %8
  %18 = phi i32 [ %14, %8 ], [ %16, %15 ]
  ret i32 %18
}

; Function Attrs: mustprogress uwtable
define internal noundef i32 @_ZL9str_lowerP9lua_State(ptr noundef %0) #2 {
  %2 = alloca ptr, align 8
  %3 = alloca i64, align 8
  %4 = alloca ptr, align 8
  %5 = alloca %struct.luaL_Strbuf, align 8
  %6 = alloca ptr, align 8
  %7 = alloca i64, align 8
  store ptr %0, ptr %2, align 8, !tbaa !20
  call void @llvm.lifetime.start.p0(i64 8, ptr %3) #13
  call void @llvm.lifetime.start.p0(i64 8, ptr %4) #13
  %8 = load ptr, ptr %2, align 8, !tbaa !20
  %9 = call noundef ptr @_Z17luaL_checklstringP9lua_StateiPm(ptr noundef %8, i32 noundef 1, ptr noundef %3)
  store ptr %9, ptr %4, align 8, !tbaa !9
  call void @llvm.lifetime.start.p0(i64 544, ptr %5) #13
  call void @llvm.lifetime.start.p0(i64 8, ptr %6) #13
  %10 = load ptr, ptr %2, align 8, !tbaa !20
  %11 = load i64, ptr %3, align 8, !tbaa !22
  %12 = call noundef ptr @_Z17luaL_buffinitsizeP9lua_StateP11luaL_Strbufm(ptr noundef %10, ptr noundef %5, i64 noundef %11)
  store ptr %12, ptr %6, align 8, !tbaa !9
  call void @llvm.lifetime.start.p0(i64 8, ptr %7) #13
  store i64 0, ptr %7, align 8, !tbaa !22
  br label %13

13:                                               ; preds = %28, %1
  %14 = load i64, ptr %7, align 8, !tbaa !22
  %15 = load i64, ptr %3, align 8, !tbaa !22
  %16 = icmp ult i64 %14, %15
  br i1 %16, label %18, label %17

17:                                               ; preds = %13
  call void @llvm.lifetime.end.p0(i64 8, ptr %7) #13
  br label %31

18:                                               ; preds = %13
  %19 = load ptr, ptr %4, align 8, !tbaa !9
  %20 = load i64, ptr %7, align 8, !tbaa !22
  %21 = getelementptr inbounds nuw i8, ptr %19, i64 %20
  %22 = load i8, ptr %21, align 1, !tbaa !26
  %23 = zext i8 %22 to i32
  %24 = call i32 @tolower(i32 noundef %23) #15
  %25 = trunc i32 %24 to i8
  %26 = load ptr, ptr %6, align 8, !tbaa !9
  %27 = getelementptr inbounds nuw i8, ptr %26, i32 1
  store ptr %27, ptr %6, align 8, !tbaa !9
  store i8 %25, ptr %26, align 1, !tbaa !26
  br label %28

28:                                               ; preds = %18
  %29 = load i64, ptr %7, align 8, !tbaa !22
  %30 = add i64 %29, 1
  store i64 %30, ptr %7, align 8, !tbaa !22
  br label %13, !llvm.loop !42

31:                                               ; preds = %17
  %32 = load i64, ptr %3, align 8, !tbaa !22
  call void @_Z19luaL_pushresultsizeP11luaL_Strbufm(ptr noundef %5, i64 noundef %32)
  call void @llvm.lifetime.end.p0(i64 8, ptr %6) #13
  call void @llvm.lifetime.end.p0(i64 544, ptr %5) #13
  call void @llvm.lifetime.end.p0(i64 8, ptr %4) #13
  call void @llvm.lifetime.end.p0(i64 8, ptr %3) #13
  ret i32 1
}