; Function Attrs: mustprogress uwtable
define internal noundef i32 @_ZL9str_lowerP9lua_State(ptr noundef %0) #0 {
  %2 = alloca i64, align 8
  %3 = alloca %struct.luaL_Strbuf, align 8
  call void @llvm.lifetime.start.p0(i64 8, ptr nonnull %2) #14
  %4 = call noundef ptr @_Z17luaL_checklstringP9lua_StateiPm(ptr noundef %0, i32 noundef 1, ptr noundef nonnull %2)
  call void @llvm.lifetime.start.p0(i64 544, ptr nonnull %3) #14
  %5 = load i64, ptr %2, align 8, !tbaa !4
  %6 = call noundef ptr @_Z17luaL_buffinitsizeP9lua_StateP11luaL_Strbufm(ptr noundef %0, ptr noundef nonnull %3, i64 noundef %5)
  %7 = load i64, ptr %2, align 8, !tbaa !4
  %.not = icmp eq i64 %7, 0
  br i1 %.not, label %._crit_edge, label %tolower.exit.lr.ph

tolower.exit.lr.ph:                               ; preds = %1
  %8 = tail call ptr @__ctype_tolower_loc() #17
  br label %tolower.exit

._crit_edge:                                      ; preds = %tolower.exit, %1
  %.lcssa = phi i64 [ 0, %1 ], [ %18, %tolower.exit ]
  call void @_Z19luaL_pushresultsizeP11luaL_Strbufm(ptr noundef nonnull %3, i64 noundef %.lcssa)
  call void @llvm.lifetime.end.p0(i64 544, ptr nonnull %3) #14
  call void @llvm.lifetime.end.p0(i64 8, ptr nonnull %2) #14
  ret i32 1

tolower.exit:                                     ; preds = %tolower.exit.lr.ph, %tolower.exit
  %.09 = phi i64 [ 0, %tolower.exit.lr.ph ], [ %17, %tolower.exit ]
  %.068 = phi ptr [ %6, %tolower.exit.lr.ph ], [ %16, %tolower.exit ]
  %9 = getelementptr inbounds nuw i8, ptr %4, i64 %.09
  %10 = load i8, ptr %9, align 1, !tbaa !8
  %11 = load ptr, ptr %8, align 8, !tbaa !41
  %12 = zext i8 %10 to i64
  %13 = getelementptr inbounds nuw i32, ptr %11, i64 %12
  %14 = load i32, ptr %13, align 4, !tbaa !43
  %15 = trunc i32 %14 to i8
  %16 = getelementptr inbounds nuw i8, ptr %.068, i64 1
  store i8 %15, ptr %.068, align 1, !tbaa !8
  %17 = add nuw i64 %.09, 1
  %18 = load i64, ptr %2, align 8, !tbaa !4
  %19 = icmp ult i64 %17, %18
  br i1 %19, label %tolower.exit, label %._crit_edge, !llvm.loop !44
}